target datalayout = "e-m:e-p270:32:32-p271:32:32-p272:64:64-i64:64-i128:128-f80:128-n8:16:32:64-S128"
target triple = "x86_64-pc-linux-gnu"

%struct.expert_field = type { i32, i32 }

@ei_gsm_a_gm_extraneous_data = internal global %struct.expert_field zeroinitializer, align 4
@hf_gsm_a_gm_nsapi = internal global i32 0, align 4
@.str.1090 = private unnamed_addr constant [18 x i8] c"NSAPI %d: %s (%u)\00", align 1
@pdp_str = internal global [2 x ptr] [ptr @.str.1091, ptr @.str.1092], align 16

; Function Attrs: null_pointer_is_valid sspstrong uwtable
define internal zeroext i16 @de_gc_context_stat(ptr noundef %0, ptr noundef %1, ptr noundef %2, i32 noundef %3, i32 noundef %4, ptr noundef %5, i32 noundef %6) #1 {
  %8 = alloca ptr, align 8
  %9 = alloca ptr, align 8
  %10 = alloca ptr, align 8
  %11 = alloca i32, align 4
  %12 = alloca i32, align 4
  %13 = alloca ptr, align 8
  %14 = alloca i32, align 4
  %15 = alloca i8, align 1
  %16 = alloca i16, align 2
  %17 = alloca i32, align 4
  store ptr %0, ptr %8, align 8
  store ptr %1, ptr %9, align 8
  store ptr %2, ptr %10, align 8
  store i32 %3, ptr %11, align 4
  store i32 %4, ptr %12, align 4
  store ptr %5, ptr %13, align 8
  store i32 %6, ptr %14, align 4
  call void @llvm.lifetime.start.p0(i64 1, ptr %15) #6
  call void @llvm.lifetime.start.p0(i64 2, ptr %16) #6
  call void @llvm.lifetime.start.p0(i64 4, ptr %17) #6
  %18 = load i32, ptr %11, align 4
  store i32 %18, ptr %17, align 4
  %19 = load ptr, ptr %8, align 8
  %20 = load i32, ptr %17, align 4
  %21 = call zeroext i8 @tvb_get_uint8(ptr noundef %19, i32 noundef %20)
  store i8 %21, ptr %15, align 1
  store i16 0, ptr %16, align 2
  br label %22

22:                                               ; preds = %60, %7
  %23 = load i16, ptr %16, align 2
  %24 = zext i16 %23 to i32
  %25 = icmp slt i32 %24, 16
  br i1 %25, label %26, label %63

26:                                               ; preds = %22
  %27 = load i16, ptr %16, align 2
  %28 = zext i16 %27 to i32
  %29 = icmp eq i32 %28, 8
  br i1 %29, label %30, label %36

30:                                               ; preds = %26
  %31 = load i32, ptr %17, align 4
  %32 = add i32 %31, 1
  store i32 %32, ptr %17, align 4
  %33 = load ptr, ptr %8, align 8
  %34 = load i32, ptr %17, align 4
  %35 = call zeroext i8 @tvb_get_uint8(ptr noundef %33, i32 noundef %34)
  store i8 %35, ptr %15, align 1
  br label %36

36:                                               ; preds = %30, %26
  %37 = load ptr, ptr %9, align 8
  %38 = load i32, ptr @hf_gsm_a_gm_nsapi, align 4
  %39 = load ptr, ptr %8, align 8
  %40 = load i32, ptr %17, align 4
  %41 = load i8, ptr %15, align 1
  %42 = zext i8 %41 to i32
  %43 = and i32 %42, 1
  %44 = load i16, ptr %16, align 2
  %45 = zext i16 %44 to i32
  %46 = load i8, ptr %15, align 1
  %47 = zext i8 %46 to i32
  %48 = and i32 %47, 1
  %49 = sext i32 %48 to i64
  %50 = getelementptr [2 x ptr], ptr @pdp_str, i64 0, i64 %49
  %51 = load ptr, ptr %50, align 8
  %52 = load i8, ptr %15, align 1
  %53 = zext i8 %52 to i32
  %54 = and i32 %53, 1
  %55 = call ptr (ptr, i32, ptr, i32, i32, i32, ptr, ...) @proto_tree_add_uint_format(ptr noundef %37, i32 noundef %38, ptr noundef %39, i32 noundef %40, i32 noundef 1, i32 noundef %43, ptr noundef @.str.1090, i32 noundef %45, ptr noundef %51, i32 noundef %54)
  %56 = load i8, ptr %15, align 1
  %57 = zext i8 %56 to i32
  %58 = ashr i32 %57, 1
  %59 = trunc i32 %58 to i8
  store i8 %59, ptr %15, align 1
  br label %60

60:                                               ; preds = %36
  %61 = load i16, ptr %16, align 2
  %62 = add i16 %61, 1
  store i16 %62, ptr %16, align 2
  br label %22, !llvm.loop !19

63:                                               ; preds = %22
  %64 = load i32, ptr %17, align 4
  %65 = add i32 %64, 1
  store i32 %65, ptr %17, align 4
  %66 = load i32, ptr %12, align 4
  %67 = load i32, ptr %17, align 4
  %68 = load i32, ptr %11, align 4
  %69 = sub i32 %67, %68
  %70 = icmp ugt i32 %66, %69
  br i1 %70, label %71, label %89

71:                                               ; preds = %63
  %72 = load ptr, ptr %9, align 8
  %73 = load ptr, ptr %10, align 8
  %74 = load ptr, ptr %8, align 8
  %75 = load i32, ptr %17, align 4
  %76 = load i32, ptr %12, align 4
  %77 = load i32, ptr %17, align 4
  %78 = load i32, ptr %11, align 4
  %79 = sub i32 %77, %78
  %80 = sub i32 %76, %79
  %81 = call ptr @proto_tree_add_expert(ptr noundef %72, ptr noundef %73, ptr noundef @ei_gsm_a_gm_extraneous_data, ptr noundef %74, i32 noundef %75, i32 noundef %80)
  %82 = load i32, ptr %12, align 4
  %83 = load i32, ptr %17, align 4
  %84 = load i32, ptr %11, align 4
  %85 = sub i32 %83, %84
  %86 = sub i32 %82, %85
  %87 = load i32, ptr %17, align 4
  %88 = add i32 %87, %86
  store i32 %88, ptr %17, align 4
  br label %89

89:                                               ; preds = %71, %63
  %90 = load i32, ptr %17, align 4
  %91 = load i32, ptr %11, align 4
  %92 = sub i32 %90, %91
  %93 = trunc i32 %92 to i16
  call void @llvm.lifetime.end.p0(i64 4, ptr %17) #6
  call void @llvm.lifetime.end.p0(i64 2, ptr %16) #6
  call void @llvm.lifetime.end.p0(i64 1, ptr %15) #6
  ret i16 %93
}