; Function Attrs: null_pointer_is_valid sspstrong uwtable
define internal noundef zeroext i16 @de_gc_context_stat(ptr noundef %0, ptr noundef %1, ptr noundef %2, i32 noundef %3, i32 noundef %4, ptr readnone captures(none) %5, i32 %6) #1 {
  %8 = tail call zeroext i8 @tvb_get_uint8(ptr noundef %0, i32 noundef %3)
  br label %9

9:                                                ; preds = %7, %14
  %indvars.iv = phi i32 [ 0, %7 ], [ %indvars.iv.next, %14 ]
  %.041 = phi i32 [ %3, %7 ], [ %.1, %14 ]
  %.03439 = phi i8 [ %8, %7 ], [ %22, %14 ]
  %10 = icmp eq i32 %indvars.iv, 8
  br i1 %10, label %11, label %14

11:                                               ; preds = %9
  %12 = add i32 %.041, 1
  %13 = tail call zeroext i8 @tvb_get_uint8(ptr noundef %0, i32 noundef %12)
  br label %14

14:                                               ; preds = %11, %9
  %.135 = phi i8 [ %13, %11 ], [ %.03439, %9 ]
  %.1 = phi i32 [ %12, %11 ], [ %.041, %9 ]
  %15 = load i32, ptr @hf_gsm_a_gm_nsapi, align 4
  %16 = and i8 %.135, 1
  %17 = zext nneg i8 %16 to i32
  %18 = zext nneg i8 %16 to i64
  %19 = getelementptr [2 x ptr], ptr @pdp_str, i64 0, i64 %18
  %20 = load ptr, ptr %19, align 8
  %21 = tail call ptr (ptr, i32, ptr, i32, i32, i32, ptr, ...) @proto_tree_add_uint_format(ptr noundef %1, i32 noundef %15, ptr noundef %0, i32 noundef %.1, i32 noundef 1, i32 noundef %17, ptr noundef nonnull @.str.1090, i32 noundef %indvars.iv, ptr noundef %20, i32 noundef %17)
  %22 = lshr i8 %.135, 1
  %indvars.iv.next = add nuw nsw i32 %indvars.iv, 1
  %exitcond.not = icmp eq i32 %indvars.iv.next, 16
  br i1 %exitcond.not, label %23, label %9, !llvm.loop !16

23:                                               ; preds = %14
  %24 = add i32 %.1, 1
  %25 = sub i32 %24, %3
  %26 = icmp ugt i32 %4, %25
  br i1 %26, label %27, label %31

27:                                               ; preds = %23
  %28 = sub nuw i32 %4, %25
  %29 = tail call ptr @proto_tree_add_expert(ptr noundef %1, ptr noundef %2, ptr noundef nonnull @ei_gsm_a_gm_extraneous_data, ptr noundef %0, i32 noundef %24, i32 noundef %28)
  %30 = add i32 %28, %24
  %.pre = sub i32 %30, %3
  br label %31

31:                                               ; preds = %27, %23
  %.pre-phi = phi i32 [ %.pre, %27 ], [ %25, %23 ]
  %32 = trunc i32 %.pre-phi to i16
  ret i16 %32
}